#include <math.h>
#include <stdio.h>
#include <stdlib.h>
#include <string.h>


void main()
{
	int i,num=0,j=0;
	char a[300][30]={0},b[10000]={0};
	gets(b);
	for(i=0;b[i]!='\0';i++)
	{
		if(b[i]!=' '&&b[i+1]=='\0')
		{
			num++;printf("%d",j+1);j=0;
		}
		else if(b[i]!=' ')
		{
             a[num][j]=b[i];j++;
		}
		else if(b[i]==' '&&b[i+1]!=' ')
		{
			num++;printf("%d,",j);j=0;
		}
	
	}
	
}