; ModuleID = '28/157.c'
source_filename = "28/157.c"
target datalayout = "e-m:e-p270:32:32-p271:32:32-p272:64:64-i64:64-f80:128-n8:16:32:64-S128"
target triple = "x86_64-pc-linux-gnu"

@.str = private unnamed_addr constant [3 x i8] c"%d\00", align 1
@.str.1 = private unnamed_addr constant [4 x i8] c"%d,\00", align 1

; Function Attrs: noinline nounwind uwtable
define dso_local void @main() #0 {
  %1 = alloca i32, align 4
  %2 = alloca i32, align 4
  %3 = alloca i32, align 4
  %4 = alloca [300 x [30 x i8]], align 16
  %5 = alloca [10000 x i8], align 16
  store i32 0, i32* %2, align 4
  store i32 0, i32* %3, align 4
  %6 = bitcast [300 x [30 x i8]]* %4 to i8*
  call void @llvm.memset.p0i8.i64(i8* align 16 %6, i8 0, i64 9000, i1 false)
  %7 = bitcast [10000 x i8]* %5 to i8*
  call void @llvm.memset.p0i8.i64(i8* align 16 %7, i8 0, i64 10000, i1 false)
  %8 = getelementptr inbounds [10000 x i8], [10000 x i8]* %5, i64 0, i64 0
  %9 = call i32 (i8*, ...) bitcast (i32 (...)* @gets to i32 (i8*, ...)*)(i8* %8)
  store i32 0, i32* %1, align 4
  br label %10

10:                                               ; preds = %81, %0
  %11 = load i32, i32* %1, align 4
  %12 = sext i32 %11 to i64
  %13 = getelementptr inbounds [10000 x i8], [10000 x i8]* %5, i64 0, i64 %12
  %14 = load i8, i8* %13, align 1
  %15 = sext i8 %14 to i32
  %16 = icmp ne i32 %15, 0
  br i1 %16, label %17, label %84

17:                                               ; preds = %10
  %18 = load i32, i32* %1, align 4
  %19 = sext i32 %18 to i64
  %20 = getelementptr inbounds [10000 x i8], [10000 x i8]* %5, i64 0, i64 %19
  %21 = load i8, i8* %20, align 1
  %22 = sext i8 %21 to i32
  %23 = icmp ne i32 %22, 32
  br i1 %23, label %24, label %38

24:                                               ; preds = %17
  %25 = load i32, i32* %1, align 4
  %26 = add nsw i32 %25, 1
  %27 = sext i32 %26 to i64
  %28 = getelementptr inbounds [10000 x i8], [10000 x i8]* %5, i64 0, i64 %27
  %29 = load i8, i8* %28, align 1
  %30 = sext i8 %29 to i32
  %31 = icmp eq i32 %30, 0
  br i1 %31, label %32, label %38

32:                                               ; preds = %24
  %33 = load i32, i32* %2, align 4
  %34 = add nsw i32 %33, 1
  store i32 %34, i32* %2, align 4
  %35 = load i32, i32* %3, align 4
  %36 = add nsw i32 %35, 1
  %37 = call i32 (i8*, ...) @printf(i8* getelementptr inbounds ([3 x i8], [3 x i8]* @.str, i64 0, i64 0), i32 %36)
  store i32 0, i32* %3, align 4
  br label %80

38:                                               ; preds = %24, %17
  %39 = load i32, i32* %1, align 4
  %40 = sext i32 %39 to i64
  %41 = getelementptr inbounds [10000 x i8], [10000 x i8]* %5, i64 0, i64 %40
  %42 = load i8, i8* %41, align 1
  %43 = sext i8 %42 to i32
  %44 = icmp ne i32 %43, 32
  br i1 %44, label %45, label %58

45:                                               ; preds = %38
  %46 = load i32, i32* %1, align 4
  %47 = sext i32 %46 to i64
  %48 = getelementptr inbounds [10000 x i8], [10000 x i8]* %5, i64 0, i64 %47
  %49 = load i8, i8* %48, align 1
  %50 = load i32, i32* %2, align 4
  %51 = sext i32 %50 to i64
  %52 = getelementptr inbounds [300 x [30 x i8]], [300 x [30 x i8]]* %4, i64 0, i64 %51
  %53 = load i32, i32* %3, align 4
  %54 = sext i32 %53 to i64
  %55 = getelementptr inbounds [30 x i8], [30 x i8]* %52, i64 0, i64 %54
  store i8 %49, i8* %55, align 1
  %56 = load i32, i32* %3, align 4
  %57 = add nsw i32 %56, 1
  store i32 %57, i32* %3, align 4
  br label %79

58:                                               ; preds = %38
  %59 = load i32, i32* %1, align 4
  %60 = sext i32 %59 to i64
  %61 = getelementptr inbounds [10000 x i8], [10000 x i8]* %5, i64 0, i64 %60
  %62 = load i8, i8* %61, align 1
  %63 = sext i8 %62 to i32
  %64 = icmp eq i32 %63, 32
  br i1 %64, label %65, label %78

65:                                               ; preds = %58
  %66 = load i32, i32* %1, align 4
  %67 = add nsw i32 %66, 1
  %68 = sext i32 %67 to i64
  %69 = getelementptr inbounds [10000 x i8], [10000 x i8]* %5, i64 0, i64 %68
  %70 = load i8, i8* %69, align 1
  %71 = sext i8 %70 to i32
  %72 = icmp ne i32 %71, 32
  br i1 %72, label %73, label %78

73:                                               ; preds = %65
  %74 = load i32, i32* %2, align 4
  %75 = add nsw i32 %74, 1
  store i32 %75, i32* %2, align 4
  %76 = load i32, i32* %3, align 4
  %77 = call i32 (i8*, ...) @printf(i8* getelementptr inbounds ([4 x i8], [4 x i8]* @.str.1, i64 0, i64 0), i32 %76)
  store i32 0, i32* %3, align 4
  br label %78

78:                                               ; preds = %73, %65, %58
  br label %79

79:                                               ; preds = %78, %45
  br label %80

80:                                               ; preds = %79, %32
  br label %81

81:                                               ; preds = %80
  %82 = load i32, i32* %1, align 4
  %83 = add nsw i32 %82, 1
  store i32 %83, i32* %1, align 4
  br label %10

84:                                               ; preds = %10
  ret void
}

; Function Attrs: argmemonly nounwind willreturn
declare void @llvm.memset.p0i8.i64(i8* nocapture writeonly, i8, i64, i1 immarg) #1

declare dso_local i32 @gets(...) #2

declare dso_local i32 @printf(i8*, ...) #2


!llvm.module.flags = !{!0}
!llvm.ident = !{!1}

!0 = !{i32 1, !"wchar_size", i32 4}
!1 = !{!"clang version 10.0.0-4ubuntu1 "}
