; ModuleID = 'source-C-CXX/27/157.c'
source_filename = "source-C-CXX/27/157.c"
target datalayout = "e-m:e-p270:32:32-p271:32:32-p272:64:64-i64:64-f80:128-n8:16:32:64-S128"
target triple = "x86_64-pc-linux-gnu"

@.str = private unnamed_addr constant [3 x i8] c"%d\00", align 1
@.str.1 = private unnamed_addr constant [4 x i8] c"%d,\00", align 1

; Function Attrs: nounwind sspstrong uwtable
define dso_local void @main() local_unnamed_addr #0 {
  %1 = alloca [10000 x i8], align 16
  %2 = getelementptr inbounds [10000 x i8], [10000 x i8]* %1, i64 0, i64 0
  call void @llvm.lifetime.start.p0i8(i64 10000, i8* nonnull %2) #5
  call void @llvm.memset.p0i8.i64(i8* noundef nonnull align 16 dereferenceable(10000) %2, i8 0, i64 10000, i1 false)
  %3 = call i32 (i8*, ...) bitcast (i32 (...)* @gets to i32 (i8*, ...)*)(i8* nonnull %2) #5
  br label %4

4:                                                ; preds = %19, %0
  %5 = phi i64 [ 0, %0 ], [ %20, %19 ]
  %6 = phi i32 [ 0, %0 ], [ %21, %19 ]
  br label %7

7:                                                ; preds = %4, %22
  %8 = phi i64 [ %23, %22 ], [ %5, %4 ]
  %9 = getelementptr inbounds [10000 x i8], [10000 x i8]* %1, i64 0, i64 %8
  %10 = load i8, i8* %9, align 1, !tbaa !5
  switch i8 %10, label %11 [
    i8 0, label %29
    i8 32, label %22
  ]

11:                                               ; preds = %7
  %12 = add nuw i64 %8, 1
  %13 = getelementptr inbounds [10000 x i8], [10000 x i8]* %1, i64 0, i64 %12
  %14 = load i8, i8* %13, align 1, !tbaa !5
  %15 = icmp eq i8 %14, 0
  %16 = add nsw i32 %6, 1
  br i1 %15, label %17, label %19

17:                                               ; preds = %11
  %18 = call i32 (i8*, ...) @printf(i8* nonnull dereferenceable(1) getelementptr inbounds ([3 x i8], [3 x i8]* @.str, i64 0, i64 0), i32 %16)
  br label %19

19:                                               ; preds = %17, %27, %11
  %20 = phi i64 [ %12, %11 ], [ %23, %27 ], [ %12, %17 ]
  %21 = phi i32 [ %16, %11 ], [ 0, %27 ], [ 0, %17 ]
  br label %4, !llvm.loop !8

22:                                               ; preds = %7
  %23 = add nuw i64 %8, 1
  %24 = getelementptr inbounds [10000 x i8], [10000 x i8]* %1, i64 0, i64 %23
  %25 = load i8, i8* %24, align 1, !tbaa !5
  %26 = icmp eq i8 %25, 32
  br i1 %26, label %7, label %27, !llvm.loop !8

27:                                               ; preds = %22
  %28 = call i32 (i8*, ...) @printf(i8* nonnull dereferenceable(1) getelementptr inbounds ([4 x i8], [4 x i8]* @.str.1, i64 0, i64 0), i32 %6)
  br label %19

29:                                               ; preds = %7
  call void @llvm.lifetime.end.p0i8(i64 10000, i8* nonnull %2) #5
  ret void
}

; Function Attrs: argmemonly mustprogress nofree nosync nounwind willreturn
declare void @llvm.lifetime.start.p0i8(i64 immarg, i8* nocapture) #1

; Function Attrs: argmemonly mustprogress nofree nounwind willreturn writeonly
declare void @llvm.memset.p0i8.i64(i8* nocapture writeonly, i8, i64, i1 immarg) #2

declare i32 @gets(...) local_unnamed_addr #3

; Function Attrs: nofree nounwind
declare noundef i32 @printf(i8* nocapture noundef readonly, ...) local_unnamed_addr #4

; Function Attrs: argmemonly mustprogress nofree nosync nounwind willreturn
declare void @llvm.lifetime.end.p0i8(i64 immarg, i8* nocapture) #1


!llvm.module.flags = !{!0, !1, !2, !3}
!llvm.ident = !{!4}

!0 = !{i32 1, !"wchar_size", i32 4}
!1 = !{i32 7, !"PIC Level", i32 2}
!2 = !{i32 7, !"PIE Level", i32 2}
!3 = !{i32 7, !"uwtable", i32 1}
!4 = !{!"clang version 13.0.0"}
!5 = !{!6, !6, i64 0}
!6 = !{!"omnipotent char", !7, i64 0}
!7 = !{!"Simple C/C++ TBAA"}
!8 = distinct !{!8, !9}
!9 = !{!"llvm.loop.mustprogress"}
